target datalayout = "e-m:e-p270:32:32-p271:32:32-p272:64:64-i64:64-f80:128-n8:16:32:64-S128"
target triple = "x86_64-pc-linux-gnu"

@.str = private unnamed_addr constant [3 x i8] c"%d\00", align 1
@.str.1 = private unnamed_addr constant [3 x i8] c"%c\00", align 1
@.str.2 = private unnamed_addr constant [15 x i8] c"%d %d %c %c %d\00", align 1
@.str.3 = private unnamed_addr constant [8 x i8] c"\0A%d\0A%d\0A\00", align 1

; Function Attrs: noinline nounwind uwtable
define dso_local i32 @main() #0 {
  %1 = alloca i32, align 4
  %2 = alloca i32, align 4
  %3 = alloca i32, align 4
  %4 = alloca i32, align 4
  %5 = alloca i32, align 4
  %6 = alloca i32, align 4
  %7 = alloca i32, align 4
  %8 = alloca i32, align 4
  %9 = alloca i32, align 4
  %10 = alloca i32, align 4
  %11 = alloca i32, align 4
  %12 = alloca i32, align 4
  %13 = alloca [100 x i32], align 16
  %14 = alloca [100 x i32], align 16
  %15 = alloca [100 x i32], align 16
  %16 = alloca [100 x i32], align 16
  %17 = alloca [100 x i8], align 16
  %18 = alloca [100 x i8], align 16
  %19 = alloca [100 x [20 x i8]], align 16
  store i32 0, i32* %1, align 4
  store i32 8000, i32* %5, align 4
  store i32 4000, i32* %6, align 4
  store i32 2000, i32* %7, align 4
  store i32 1000, i32* %8, align 4
  store i32 850, i32* %9, align 4
  store i32 0, i32* %10, align 4
  store i32 0, i32* %11, align 4
  store i32 0, i32* %12, align 4
  %20 = call i32 (i8*, ...) @__isoc99_scanf(i8* getelementptr inbounds ([3 x i8], [3 x i8]* @.str, i64 0, i64 0), i32* %2)
  store i32 0, i32* %3, align 4
  br label %21

21:                                               ; preds = %182, %0
  %22 = load i32, i32* %3, align 4
  %23 = load i32, i32* %2, align 4
  %24 = icmp slt i32 %22, %23
  br i1 %24, label %25, label %185

25:                                               ; preds = %21
  %26 = call i32 @getchar()
  store i32 0, i32* %4, align 4
  br label %27

27:                                               ; preds = %49, %25
  %28 = load i32, i32* %4, align 4
  %29 = icmp slt i32 %28, 20
  br i1 %29, label %30, label %52

30:                                               ; preds = %27
  %31 = load i32, i32* %3, align 4
  %32 = sext i32 %31 to i64
  %33 = getelementptr inbounds [100 x [20 x i8]], [100 x [20 x i8]]* %19, i64 0, i64 %32
  %34 = load i32, i32* %4, align 4
  %35 = sext i32 %34 to i64
  %36 = getelementptr inbounds [20 x i8], [20 x i8]* %33, i64 0, i64 %35
  %37 = call i32 (i8*, ...) @__isoc99_scanf(i8* getelementptr inbounds ([3 x i8], [3 x i8]* @.str.1, i64 0, i64 0), i8* %36)
  %38 = load i32, i32* %3, align 4
  %39 = sext i32 %38 to i64
  %40 = getelementptr inbounds [100 x [20 x i8]], [100 x [20 x i8]]* %19, i64 0, i64 %39
  %41 = load i32, i32* %4, align 4
  %42 = sext i32 %41 to i64
  %43 = getelementptr inbounds [20 x i8], [20 x i8]* %40, i64 0, i64 %42
  %44 = load i8, i8* %43, align 1
  %45 = sext i8 %44 to i32
  %46 = icmp eq i32 %45, 32
  br i1 %46, label %47, label %48

47:                                               ; preds = %30
  br label %52

48:                                               ; preds = %30
  br label %49

49:                                               ; preds = %48
  %50 = load i32, i32* %4, align 4
  %51 = add nsw i32 %50, 1
  store i32 %51, i32* %4, align 4
  br label %27

52:                                               ; preds = %47, %27
  %53 = load i32, i32* %3, align 4
  %54 = sext i32 %53 to i64
  %55 = getelementptr inbounds [100 x i32], [100 x i32]* %16, i64 0, i64 %54
  store i32 0, i32* %55, align 4
  %56 = load i32, i32* %3, align 4
  %57 = sext i32 %56 to i64
  %58 = getelementptr inbounds [100 x i32], [100 x i32]* %13, i64 0, i64 %57
  %59 = load i32, i32* %3, align 4
  %60 = sext i32 %59 to i64
  %61 = getelementptr inbounds [100 x i32], [100 x i32]* %14, i64 0, i64 %60
  %62 = load i32, i32* %3, align 4
  %63 = sext i32 %62 to i64
  %64 = getelementptr inbounds [100 x i8], [100 x i8]* %18, i64 0, i64 %63
  %65 = load i32, i32* %3, align 4
  %66 = sext i32 %65 to i64
  %67 = getelementptr inbounds [100 x i8], [100 x i8]* %17, i64 0, i64 %66
  %68 = load i32, i32* %3, align 4
  %69 = sext i32 %68 to i64
  %70 = getelementptr inbounds [100 x i32], [100 x i32]* %15, i64 0, i64 %69
  %71 = call i32 (i8*, ...) @__isoc99_scanf(i8* getelementptr inbounds ([15 x i8], [15 x i8]* @.str.2, i64 0, i64 0), i32* %58, i32* %61, i8* %64, i8* %67, i32* %70)
  %72 = load i32, i32* %3, align 4
  %73 = sext i32 %72 to i64
  %74 = getelementptr inbounds [100 x i32], [100 x i32]* %13, i64 0, i64 %73
  %75 = load i32, i32* %74, align 4
  %76 = icmp sgt i32 %75, 80
  br i1 %76, label %77, label %90

77:                                               ; preds = %52
  %78 = load i32, i32* %3, align 4
  %79 = sext i32 %78 to i64
  %80 = getelementptr inbounds [100 x i32], [100 x i32]* %15, i64 0, i64 %79
  %81 = load i32, i32* %80, align 4
  %82 = icmp sgt i32 %81, 0
  br i1 %82, label %83, label %90

83:                                               ; preds = %77
  %84 = load i32, i32* %5, align 4
  %85 = load i32, i32* %3, align 4
  %86 = sext i32 %85 to i64
  %87 = getelementptr inbounds [100 x i32], [100 x i32]* %16, i64 0, i64 %86
  %88 = load i32, i32* %87, align 4
  %89 = add nsw i32 %88, %84
  store i32 %89, i32* %87, align 4
  br label %90

90:                                               ; preds = %83, %77, %52
  %91 = load i32, i32* %3, align 4
  %92 = sext i32 %91 to i64
  %93 = getelementptr inbounds [100 x i32], [100 x i32]* %13, i64 0, i64 %92
  %94 = load i32, i32* %93, align 4
  %95 = icmp sgt i32 %94, 85
  br i1 %95, label %96, label %109

96:                                               ; preds = %90
  %97 = load i32, i32* %3, align 4
  %98 = sext i32 %97 to i64
  %99 = getelementptr inbounds [100 x i32], [100 x i32]* %14, i64 0, i64 %98
  %100 = load i32, i32* %99, align 4
  %101 = icmp sgt i32 %100, 80
  br i1 %101, label %102, label %109

102:                                              ; preds = %96
  %103 = load i32, i32* %6, align 4
  %104 = load i32, i32* %3, align 4
  %105 = sext i32 %104 to i64
  %106 = getelementptr inbounds [100 x i32], [100 x i32]* %16, i64 0, i64 %105
  %107 = load i32, i32* %106, align 4
  %108 = add nsw i32 %107, %103
  store i32 %108, i32* %106, align 4
  br label %109

109:                                              ; preds = %102, %96, %90
  %110 = load i32, i32* %3, align 4
  %111 = sext i32 %110 to i64
  %112 = getelementptr inbounds [100 x i32], [100 x i32]* %13, i64 0, i64 %111
  %113 = load i32, i32* %112, align 4
  %114 = icmp sgt i32 %113, 90
  br i1 %114, label %115, label %122

115:                                              ; preds = %109
  %116 = load i32, i32* %7, align 4
  %117 = load i32, i32* %3, align 4
  %118 = sext i32 %117 to i64
  %119 = getelementptr inbounds [100 x i32], [100 x i32]* %16, i64 0, i64 %118
  %120 = load i32, i32* %119, align 4
  %121 = add nsw i32 %120, %116
  store i32 %121, i32* %119, align 4
  br label %122

122:                                              ; preds = %115, %109
  %123 = load i32, i32* %3, align 4
  %124 = sext i32 %123 to i64
  %125 = getelementptr inbounds [100 x i32], [100 x i32]* %13, i64 0, i64 %124
  %126 = load i32, i32* %125, align 4
  %127 = icmp sgt i32 %126, 85
  br i1 %127, label %128, label %142

128:                                              ; preds = %122
  %129 = load i32, i32* %3, align 4
  %130 = sext i32 %129 to i64
  %131 = getelementptr inbounds [100 x i8], [100 x i8]* %17, i64 0, i64 %130
  %132 = load i8, i8* %131, align 1
  %133 = sext i8 %132 to i32
  %134 = icmp eq i32 %133, 89
  br i1 %134, label %135, label %142

135:                                              ; preds = %128
  %136 = load i32, i32* %8, align 4
  %137 = load i32, i32* %3, align 4
  %138 = sext i32 %137 to i64
  %139 = getelementptr inbounds [100 x i32], [100 x i32]* %16, i64 0, i64 %138
  %140 = load i32, i32* %139, align 4
  %141 = add nsw i32 %140, %136
  store i32 %141, i32* %139, align 4
  br label %142

142:                                              ; preds = %135, %128, %122
  %143 = load i32, i32* %3, align 4
  %144 = sext i32 %143 to i64
  %145 = getelementptr inbounds [100 x i32], [100 x i32]* %14, i64 0, i64 %144
  %146 = load i32, i32* %145, align 4
  %147 = icmp sgt i32 %146, 80
  br i1 %147, label %148, label %162

148:                                              ; preds = %142
  %149 = load i32, i32* %3, align 4
  %150 = sext i32 %149 to i64
  %151 = getelementptr inbounds [100 x i8], [100 x i8]* %18, i64 0, i64 %150
  %152 = load i8, i8* %151, align 1
  %153 = sext i8 %152 to i32
  %154 = icmp eq i32 %153, 89
  br i1 %154, label %155, label %162

155:                                              ; preds = %148
  %156 = load i32, i32* %9, align 4
  %157 = load i32, i32* %3, align 4
  %158 = sext i32 %157 to i64
  %159 = getelementptr inbounds [100 x i32], [100 x i32]* %16, i64 0, i64 %158
  %160 = load i32, i32* %159, align 4
  %161 = add nsw i32 %160, %156
  store i32 %161, i32* %159, align 4
  br label %162

162:                                              ; preds = %155, %148, %142
  %163 = load i32, i32* %3, align 4
  %164 = sext i32 %163 to i64
  %165 = getelementptr inbounds [100 x i32], [100 x i32]* %16, i64 0, i64 %164
  %166 = load i32, i32* %165, align 4
  %167 = load i32, i32* %12, align 4
  %168 = add nsw i32 %167, %166
  store i32 %168, i32* %12, align 4
  %169 = load i32, i32* %3, align 4
  %170 = sext i32 %169 to i64
  %171 = getelementptr inbounds [100 x i32], [100 x i32]* %16, i64 0, i64 %170
  %172 = load i32, i32* %171, align 4
  %173 = load i32, i32* %10, align 4
  %174 = icmp sgt i32 %172, %173
  br i1 %174, label %175, label %181

175:                                              ; preds = %162
  %176 = load i32, i32* %3, align 4
  %177 = sext i32 %176 to i64
  %178 = getelementptr inbounds [100 x i32], [100 x i32]* %16, i64 0, i64 %177
  %179 = load i32, i32* %178, align 4
  store i32 %179, i32* %10, align 4
  %180 = load i32, i32* %3, align 4
  store i32 %180, i32* %11, align 4
  br label %181

181:                                              ; preds = %175, %162
  br label %182

182:                                              ; preds = %181
  %183 = load i32, i32* %3, align 4
  %184 = add nsw i32 %183, 1
  store i32 %184, i32* %3, align 4
  br label %21

185:                                              ; preds = %21
  store i32 0, i32* %3, align 4
  br label %186

186:                                              ; preds = %211, %185
  %187 = load i32, i32* %3, align 4
  %188 = icmp slt i32 %187, 20
  br i1 %188, label %189, label %214

189:                                              ; preds = %186
  %190 = load i32, i32* %11, align 4
  %191 = sext i32 %190 to i64
  %192 = getelementptr inbounds [100 x [20 x i8]], [100 x [20 x i8]]* %19, i64 0, i64 %191
  %193 = load i32, i32* %3, align 4
  %194 = sext i32 %193 to i64
  %195 = getelementptr inbounds [20 x i8], [20 x i8]* %192, i64 0, i64 %194
  %196 = load i8, i8* %195, align 1
  %197 = sext i8 %196 to i32
  %198 = icmp ne i32 %197, 32
  br i1 %198, label %199, label %209

199:                                              ; preds = %189
  %200 = load i32, i32* %11, align 4
  %201 = sext i32 %200 to i64
  %202 = getelementptr inbounds [100 x [20 x i8]], [100 x [20 x i8]]* %19, i64 0, i64 %201
  %203 = load i32, i32* %3, align 4
  %204 = sext i32 %203 to i64
  %205 = getelementptr inbounds [20 x i8], [20 x i8]* %202, i64 0, i64 %204
  %206 = load i8, i8* %205, align 1
  %207 = sext i8 %206 to i32
  %208 = call i32 (i8*, ...) @printf(i8* getelementptr inbounds ([3 x i8], [3 x i8]* @.str.1, i64 0, i64 0), i32 %207)
  br label %210

209:                                              ; preds = %189
  br label %214

210:                                              ; preds = %199
  br label %211

211:                                              ; preds = %210
  %212 = load i32, i32* %3, align 4
  %213 = add nsw i32 %212, 1
  store i32 %213, i32* %3, align 4
  br label %186

214:                                              ; preds = %209, %186
  %215 = load i32, i32* %10, align 4
  %216 = load i32, i32* %12, align 4
  %217 = call i32 (i8*, ...) @printf(i8* getelementptr inbounds ([8 x i8], [8 x i8]* @.str.3, i64 0, i64 0), i32 %215, i32 %216)
  ret i32 0
}